; Function Attrs: mustprogress uwtable
define void @_ZN3g2o16OptimizableGraph13forEachVertexESt8functionIFvPNS0_6VertexEEE(ptr noundef nonnull readonly align 8 captures(none) dereferenceable(288) %0, ptr noundef %1) local_unnamed_addr #4 align 2 personality ptr @__gxx_personality_v0 {
  %3 = alloca ptr, align 8
  %4 = getelementptr inbounds nuw i8, ptr %0, i64 24
  %.sroa.02.05 = load ptr, ptr %4, align 8, !tbaa !142
  %.not6 = icmp eq ptr %.sroa.02.05, null
  br i1 %.not6, label %._crit_edge, label %.lr.ph

.lr.ph:                                           ; preds = %2
  %5 = getelementptr inbounds nuw i8, ptr %1, i64 16
  %6 = getelementptr inbounds nuw i8, ptr %1, i64 24
  br label %7

._crit_edge:                                      ; preds = %_ZNKSt8functionIFvPN3g2o16OptimizableGraph6VertexEEEclES3_.exit, %2
  ret void

7:                                                ; preds = %.lr.ph, %_ZNKSt8functionIFvPN3g2o16OptimizableGraph6VertexEEEclES3_.exit
  %.sroa.02.07 = phi ptr [ %.sroa.02.05, %.lr.ph ], [ %.sroa.02.0, %_ZNKSt8functionIFvPN3g2o16OptimizableGraph6VertexEEEclES3_.exit ]
  %8 = getelementptr inbounds nuw i8, ptr %.sroa.02.07, i64 16
  %9 = load ptr, ptr %8, align 8, !tbaa !143
  call void @llvm.lifetime.start.p0(i64 8, ptr nonnull %3)
  store ptr %9, ptr %3, align 8, !tbaa !145
  %10 = load ptr, ptr %5, align 8, !tbaa !141
  %.not.i.i = icmp eq ptr %10, null
  br i1 %.not.i.i, label %11, label %_ZNKSt8functionIFvPN3g2o16OptimizableGraph6VertexEEEclES3_.exit

11:                                               ; preds = %7
  call void @_ZSt25__throw_bad_function_callv() #48
  unreachable

_ZNKSt8functionIFvPN3g2o16OptimizableGraph6VertexEEEclES3_.exit: ; preds = %7
  %12 = load ptr, ptr %6, align 8, !tbaa !138
  call void %12(ptr noundef nonnull align 8 dereferenceable(32) %1, ptr noundef nonnull align 8 dereferenceable(8) %3)
  call void @llvm.lifetime.end.p0(i64 8, ptr nonnull %3)
  %.sroa.02.0 = load ptr, ptr %.sroa.02.07, align 8, !tbaa !142
  %.not = icmp eq ptr %.sroa.02.0, null
  br i1 %.not, label %._crit_edge, label %7, !llvm.loop !147
}